; Function Attrs: mustprogress nounwind uwtable
define dso_local noundef zeroext i1 @_ZNK4llvm19AArch64CallLowering14canLowerReturnERNS_15MachineFunctionEjRNS_15SmallVectorImplINS_12CallLowering11BaseArgInfoEEEb(ptr noundef nonnull align 8 dereferenceable(16) %0, ptr noundef nonnull align 8 dereferenceable(1041) %1, i32 noundef %2, ptr noundef nonnull align 1 %3, i1 noundef zeroext %4) unnamed_addr #1 align 2 {
  %6 = alloca %"class.llvm::SmallVector.331", align 8
  %7 = alloca %"class.llvm::CCState", align 8
  %8 = getelementptr inbounds nuw i8, ptr %6, i64 16
  call void @_ZN4llvm15SmallVectorBaseIjEC2EPvm(ptr noundef nonnull align 8 dereferenceable(528) %6, ptr noundef nonnull %8, i64 noundef 16) #15
  %9 = getelementptr inbounds nuw i8, ptr %0, i64 8
  %10 = load ptr, ptr %9, align 8
  %11 = load ptr, ptr %1, align 8
  %12 = call noundef nonnull align 8 dereferenceable(8) ptr @_ZNK4llvm8Function10getContextEv(ptr noundef nonnull align 8 dereferenceable(136) %11) #15
  call void @_ZN4llvm7CCStateC1EjbRNS_15MachineFunctionERNS_15SmallVectorImplINS_11CCValAssignEEERNS_11LLVMContextEb(ptr noundef nonnull align 8 dereferenceable(420) %7, i32 noundef %2, i1 noundef zeroext %4, ptr noundef nonnull align 8 dereferenceable(1041) %1, ptr noundef nonnull align 8 dereferenceable(16) %6, ptr noundef nonnull align 8 dereferenceable(8) %12, i1 noundef zeroext false) #15
  %13 = call noundef ptr @_ZNK4llvm21AArch64TargetLowering19CCAssignFnForReturnEj(ptr noundef nonnull align 8 dereferenceable(408240) %10, i32 noundef %2) #15
  %14 = call noundef zeroext i1 @_ZNK4llvm12CallLowering11checkReturnERNS_7CCStateERNS_15SmallVectorImplINS0_11BaseArgInfoEEEPFbjNS_3MVTES7_NS_11CCValAssign7LocInfoENS_3ISD10ArgFlagsTyES2_E(ptr noundef nonnull align 8 dereferenceable(16) %0, ptr noundef nonnull align 8 dereferenceable(420) %7, ptr noundef nonnull align 1 %3, ptr noundef %13) #15
  call void @_ZN4llvm7CCStateD2Ev(ptr noundef nonnull align 8 dereferenceable(420) %7) #15
  %15 = call noundef i64 @_ZNK4llvm15SmallVectorBaseIjE4sizeEv(ptr noundef nonnull align 8 dereferenceable(528) %6) #15
  %16 = load ptr, ptr %6, align 8
  %17 = icmp eq ptr %16, %8
  br i1 %17, label %_ZN4llvm11SmallVectorINS_11CCValAssignELj16EED2Ev.exit, label %18

18:                                               ; preds = %5
  call void @free(ptr noundef %16) #15
  br label %_ZN4llvm11SmallVectorINS_11CCValAssignELj16EED2Ev.exit

_ZN4llvm11SmallVectorINS_11CCValAssignELj16EED2Ev.exit: ; preds = %5, %18
  ret i1 %14
}